target datalayout = "e-m:e-p270:32:32-p271:32:32-p272:64:64-i64:64-i128:128-f80:128-n8:16:32:64-S128"
target triple = "x86_64-pc-linux-gnu"

%struct.ident_t = type { i32, i32, i32, i32, ptr }
%struct.gmx_pme_pp = type <{ ptr, %"class.std::vector", i32, [4 x i8], %"class.gmx::PaddedVector", %"class.gmx::PaddedVector", %"class.std::vector.2", %"class.std::vector.2", %"class.std::vector.2", %"class.std::vector.2", %"class.std::vector.7", %"class.std::vector.11", %"class.std::vector.16", %"class.std::vector.21", %"class.std::unique_ptr", %"class.std::unique_ptr.28", i8, i8, i8, i8, [4 x i8] }>
%"class.std::vector" = type { %"struct.std::_Vector_base" }
%"struct.std::_Vector_base" = type { %"struct.std::_Vector_base<PpRanks, std::allocator<PpRanks>>::_Vector_impl" }
%"struct.std::_Vector_base<PpRanks, std::allocator<PpRanks>>::_Vector_impl" = type { %"struct.std::_Vector_base<PpRanks, std::allocator<PpRanks>>::_Vector_impl_data" }
%"struct.std::_Vector_base<PpRanks, std::allocator<PpRanks>>::_Vector_impl_data" = type { ptr, ptr, ptr }
%"class.gmx::PaddedVector" = type { %"class.std::vector.0", %"class.__gnu_cxx::__normal_iterator" }
%"class.std::vector.0" = type { %"struct.std::_Vector_base.1" }
%"struct.std::_Vector_base.1" = type { %"struct.std::_Vector_base<float, gmx::Allocator<float, gmx::HostAllocationPolicy>>::_Vector_impl" }
%"struct.std::_Vector_base<float, gmx::Allocator<float, gmx::HostAllocationPolicy>>::_Vector_impl" = type { %"class.gmx::Allocator.base", %"struct.std::_Vector_base<float, gmx::Allocator<float, gmx::HostAllocationPolicy>>::_Vector_impl_data" }
%"class.gmx::Allocator.base" = type { %"class.gmx::HostAllocationPolicy.base" }
%"class.gmx::HostAllocationPolicy.base" = type <{ i32, i8 }>
%"struct.std::_Vector_base<float, gmx::Allocator<float, gmx::HostAllocationPolicy>>::_Vector_impl_data" = type { ptr, ptr, ptr }
%"class.__gnu_cxx::__normal_iterator" = type { ptr }
%"class.std::vector.2" = type { %"struct.std::_Vector_base.3" }
%"struct.std::_Vector_base.3" = type { %"struct.std::_Vector_base<float, std::allocator<float>>::_Vector_impl" }
%"struct.std::_Vector_base<float, std::allocator<float>>::_Vector_impl" = type { %"struct.std::_Vector_base<float, std::allocator<float>>::_Vector_impl_data" }
%"struct.std::_Vector_base<float, std::allocator<float>>::_Vector_impl_data" = type { ptr, ptr, ptr }
%"class.std::vector.7" = type { %"struct.std::_Vector_base.8" }
%"struct.std::_Vector_base.8" = type { %"struct.std::_Vector_base<gmx::BasicVector<float>, gmx::Allocator<gmx::BasicVector<float>, gmx::HostAllocationPolicy>>::_Vector_impl" }
%"struct.std::_Vector_base<gmx::BasicVector<float>, gmx::Allocator<gmx::BasicVector<float>, gmx::HostAllocationPolicy>>::_Vector_impl" = type { %"class.gmx::Allocator.base.10", %"struct.std::_Vector_base<gmx::BasicVector<float>, gmx::Allocator<gmx::BasicVector<float>, gmx::HostAllocationPolicy>>::_Vector_impl_data" }
%"class.gmx::Allocator.base.10" = type { %"class.gmx::HostAllocationPolicy.base" }
%"struct.std::_Vector_base<gmx::BasicVector<float>, gmx::Allocator<gmx::BasicVector<float>, gmx::HostAllocationPolicy>>::_Vector_impl_data" = type { ptr, ptr, ptr }
%"class.std::vector.11" = type { %"struct.std::_Vector_base.12" }
%"struct.std::_Vector_base.12" = type { %"struct.std::_Vector_base<gmx::BasicVector<float>, std::allocator<gmx::BasicVector<float>>>::_Vector_impl" }
%"struct.std::_Vector_base<gmx::BasicVector<float>, std::allocator<gmx::BasicVector<float>>>::_Vector_impl" = type { %"struct.std::_Vector_base<gmx::BasicVector<float>, std::allocator<gmx::BasicVector<float>>>::_Vector_impl_data" }
%"struct.std::_Vector_base<gmx::BasicVector<float>, std::allocator<gmx::BasicVector<float>>>::_Vector_impl_data" = type { ptr, ptr, ptr }
%"class.std::vector.16" = type { %"struct.std::_Vector_base.17" }
%"struct.std::_Vector_base.17" = type { %"struct.std::_Vector_base<tmpi_req_ *, std::allocator<tmpi_req_ *>>::_Vector_impl" }
%"struct.std::_Vector_base<tmpi_req_ *, std::allocator<tmpi_req_ *>>::_Vector_impl" = type { %"struct.std::_Vector_base<tmpi_req_ *, std::allocator<tmpi_req_ *>>::_Vector_impl_data" }
%"struct.std::_Vector_base<tmpi_req_ *, std::allocator<tmpi_req_ *>>::_Vector_impl_data" = type { ptr, ptr, ptr }
%"class.std::vector.21" = type { %"struct.std::_Vector_base.22" }
%"struct.std::_Vector_base.22" = type { %"struct.std::_Vector_base<tmpi_status_, std::allocator<tmpi_status_>>::_Vector_impl" }
%"struct.std::_Vector_base<tmpi_status_, std::allocator<tmpi_status_>>::_Vector_impl" = type { %"struct.std::_Vector_base<tmpi_status_, std::allocator<tmpi_status_>>::_Vector_impl_data" }
%"struct.std::_Vector_base<tmpi_status_, std::allocator<tmpi_status_>>::_Vector_impl_data" = type { ptr, ptr, ptr }
%"class.std::unique_ptr" = type { %"struct.std::__uniq_ptr_data" }
%"struct.std::__uniq_ptr_data" = type { %"class.std::__uniq_ptr_impl" }
%"class.std::__uniq_ptr_impl" = type { %"class.std::tuple" }
%"class.std::tuple" = type { %"struct.std::_Tuple_impl" }
%"struct.std::_Tuple_impl" = type { %"struct.std::_Head_base.27" }
%"struct.std::_Head_base.27" = type { ptr }
%"class.std::unique_ptr.28" = type { %"struct.std::__uniq_ptr_data.29" }
%"struct.std::__uniq_ptr_data.29" = type { %"class.std::__uniq_ptr_impl.30" }
%"class.std::__uniq_ptr_impl.30" = type { %"class.std::tuple.31" }
%"class.std::tuple.31" = type { %"struct.std::_Tuple_impl.32" }
%"struct.std::_Tuple_impl.32" = type { %"struct.std::_Head_base.35" }
%"struct.std::_Head_base.35" = type { ptr }
%struct.PpRanks = type { i32, i32 }

@1 = private unnamed_addr constant %struct.ident_t { i32 0, i32 514, i32 0, i32 22, ptr @0 }, align 8

; Function Attrs: mustprogress nounwind uwtable
define linkonce_odr noundef nonnull align 8 dereferenceable(8) ptr @_ZNSt10_Head_baseILm0EPN3gmx17PmeForceSenderGpuELb0EE7_M_headERKS3_(ptr noundef nonnull align 8 dereferenceable(8) %0) #1 comdat align 2 {
  %2 = alloca ptr, align 8
  store ptr %0, ptr %2, align 8, !tbaa !237
  %3 = load ptr, ptr %2, align 8, !tbaa !237
  %4 = getelementptr inbounds nuw %"struct.std::_Head_base.35", ptr %3, i32 0, i32 0
  ret ptr %4
}

; Function Attrs: mustprogress nounwind uwtable
define linkonce_odr noundef nonnull align 8 dereferenceable(8) ptr @_ZNSt11_Tuple_implILm0EJPN3gmx17PmeForceSenderGpuESt14default_deleteIS1_EEE7_M_headERKS5_(ptr noundef nonnull align 8 dereferenceable(8) %0) #1 comdat align 2 {
  %2 = alloca ptr, align 8
  store ptr %0, ptr %2, align 8, !tbaa !233
  %3 = load ptr, ptr %2, align 8, !tbaa !233
  %4 = call noundef nonnull align 8 dereferenceable(8) ptr @_ZNSt10_Head_baseILm0EPN3gmx17PmeForceSenderGpuELb0EE7_M_headERKS3_(ptr noundef nonnull align 8 dereferenceable(8) %3) #16
  ret ptr %4
}

; Function Attrs: mustprogress nounwind uwtable
define linkonce_odr noundef nonnull align 8 dereferenceable(8) ptr @_ZSt12__get_helperILm0EPN3gmx17PmeForceSenderGpuEJSt14default_deleteIS1_EEERKT0_RKSt11_Tuple_implIXT_EJS5_DpT1_EE(ptr noundef nonnull align 8 dereferenceable(8) %0) #1 comdat {
  %2 = alloca ptr, align 8
  store ptr %0, ptr %2, align 8, !tbaa !233
  %3 = load ptr, ptr %2, align 8, !tbaa !233
  %4 = call noundef nonnull align 8 dereferenceable(8) ptr @_ZNSt11_Tuple_implILm0EJPN3gmx17PmeForceSenderGpuESt14default_deleteIS1_EEE7_M_headERKS5_(ptr noundef nonnull align 8 dereferenceable(8) %3) #16
  ret ptr %4
}

; Function Attrs: mustprogress nounwind uwtable
define linkonce_odr noundef nonnull align 8 dereferenceable(8) ptr @_ZSt3getILm0EJPN3gmx17PmeForceSenderGpuESt14default_deleteIS1_EEERKNSt13tuple_elementIXT_ESt5tupleIJDpT0_EEE4typeERKS9_(ptr noundef nonnull align 8 dereferenceable(8) %0) #1 comdat {
  %2 = alloca ptr, align 8
  store ptr %0, ptr %2, align 8, !tbaa !231
  %3 = load ptr, ptr %2, align 8, !tbaa !231
  %4 = call noundef nonnull align 8 dereferenceable(8) ptr @_ZSt12__get_helperILm0EPN3gmx17PmeForceSenderGpuEJSt14default_deleteIS1_EEERKT0_RKSt11_Tuple_implIXT_EJS5_DpT1_EE(ptr noundef nonnull align 8 dereferenceable(8) %3) #16
  ret ptr %4
}

; Function Attrs: mustprogress nounwind uwtable
define linkonce_odr noundef ptr @_ZNKSt15__uniq_ptr_implIN3gmx17PmeForceSenderGpuESt14default_deleteIS1_EE6_M_ptrEv(ptr noundef nonnull align 8 dereferenceable(8) %0) #1 comdat align 2 {
  %2 = alloca ptr, align 8
  store ptr %0, ptr %2, align 8, !tbaa !229
  %3 = load ptr, ptr %2, align 8
  %4 = getelementptr inbounds nuw %"class.std::__uniq_ptr_impl.30", ptr %3, i32 0, i32 0
  %5 = call noundef nonnull align 8 dereferenceable(8) ptr @_ZSt3getILm0EJPN3gmx17PmeForceSenderGpuESt14default_deleteIS1_EEERKNSt13tuple_elementIXT_ESt5tupleIJDpT0_EEE4typeERKS9_(ptr noundef nonnull align 8 dereferenceable(8) %4) #16
  %6 = load ptr, ptr %5, align 8, !tbaa !398
  ret ptr %6
}

; Function Attrs: mustprogress nounwind uwtable
define linkonce_odr noundef ptr @_ZNKSt10unique_ptrIN3gmx17PmeForceSenderGpuESt14default_deleteIS1_EE3getEv(ptr noundef nonnull align 8 dereferenceable(8) %0) #1 comdat align 2 {
  %2 = alloca ptr, align 8
  store ptr %0, ptr %2, align 8, !tbaa !104
  %3 = load ptr, ptr %2, align 8
  %4 = getelementptr inbounds nuw %"class.std::unique_ptr.28", ptr %3, i32 0, i32 0
  %5 = call noundef ptr @_ZNKSt15__uniq_ptr_implIN3gmx17PmeForceSenderGpuESt14default_deleteIS1_EE6_M_ptrEv(ptr noundef nonnull align 8 dereferenceable(8) %4) #16
  ret ptr %5
}

; Function Attrs: mustprogress nounwind uwtable
define linkonce_odr noundef ptr @_ZNKSt10unique_ptrIN3gmx17PmeForceSenderGpuESt14default_deleteIS1_EEptEv(ptr noundef nonnull align 8 dereferenceable(8) %0) #1 comdat align 2 {
  %2 = alloca ptr, align 8
  store ptr %0, ptr %2, align 8, !tbaa !104
  %3 = load ptr, ptr %2, align 8
  %4 = call noundef ptr @_ZNKSt10unique_ptrIN3gmx17PmeForceSenderGpuESt14default_deleteIS1_EE3getEv(ptr noundef nonnull align 8 dereferenceable(8) %3) #16
  ret ptr %4
}

; Function Attrs: mustprogress nounwind uwtable
define linkonce_odr noundef nonnull align 4 dereferenceable(8) ptr @_ZNSt6vectorI7PpRanksSaIS0_EEixEm(ptr noundef nonnull align 8 dereferenceable(24) %0, i64 noundef %1) #1 comdat align 2 {
  %3 = alloca ptr, align 8
  %4 = alloca i64, align 8
  store ptr %0, ptr %3, align 8, !tbaa !11
  store i64 %1, ptr %4, align 8, !tbaa !92
  %5 = load ptr, ptr %3, align 8
  %6 = getelementptr inbounds nuw %"struct.std::_Vector_base", ptr %5, i32 0, i32 0
  %7 = getelementptr inbounds nuw %"struct.std::_Vector_base<PpRanks, std::allocator<PpRanks>>::_Vector_impl_data", ptr %6, i32 0, i32 0
  %8 = load ptr, ptr %7, align 8, !tbaa !87
  %9 = load i64, ptr %4, align 8, !tbaa !92
  %10 = getelementptr inbounds nuw %struct.PpRanks, ptr %8, i64 %9
  ret ptr %10
}

; Function Attrs: alwaysinline norecurse nounwind uwtable
define internal void @_ZL27gmx_pme_send_force_vir_enerRK9gmx_pme_tP10gmx_pme_ppRK9PmeOutputfb.omp_outlined(ptr noalias noundef %0, ptr noalias noundef %1, ptr noundef nonnull align 4 dereferenceable(4) %2, ptr noundef nonnull align 8 dereferenceable(8) %3) #15 personality ptr @__gxx_personality_v0 {
  %5 = alloca ptr, align 8
  %6 = alloca ptr, align 8
  %7 = alloca ptr, align 8
  %8 = alloca ptr, align 8
  %9 = alloca i32, align 4
  %10 = alloca i32, align 4
  %11 = alloca i32, align 4
  %12 = alloca i32, align 4
  %13 = alloca i32, align 4
  %14 = alloca i32, align 4
  %15 = alloca i32, align 4
  %16 = alloca i32, align 4
  %17 = alloca i32, align 4
  %18 = alloca ptr, align 8
  store ptr %0, ptr %5, align 8, !tbaa !382
  store ptr %1, ptr %6, align 8, !tbaa !382
  store ptr %2, ptr %7, align 8, !tbaa !382
  store ptr %3, ptr %8, align 8, !tbaa !494
  %19 = load ptr, ptr %7, align 8, !tbaa !382
  %20 = load ptr, ptr %8, align 8, !tbaa !494
  call void @llvm.lifetime.start.p0(i64 4, ptr %9) #16
  call void @llvm.lifetime.start.p0(i64 4, ptr %10) #16
  %21 = load i32, ptr %19, align 4, !tbaa !210
  store i32 %21, ptr %10, align 4, !tbaa !210
  call void @llvm.lifetime.start.p0(i64 4, ptr %11) #16
  %22 = load i32, ptr %10, align 4, !tbaa !210
  %23 = sub nsw i32 %22, 0
  %24 = sdiv i32 %23, 1
  %25 = sub nsw i32 %24, 1
  store i32 %25, ptr %11, align 4, !tbaa !210
  call void @llvm.lifetime.start.p0(i64 4, ptr %12) #16
  store i32 0, ptr %12, align 4, !tbaa !210
  call void @llvm.lifetime.end.p0(i64 4, ptr %12) #16
  %26 = load i32, ptr %10, align 4, !tbaa !210
  %27 = icmp slt i32 0, %26
  br i1 %27, label %28, label %78

28:                                               ; preds = %4
  call void @llvm.lifetime.start.p0(i64 4, ptr %13) #16
  store i32 0, ptr %13, align 4, !tbaa !210
  call void @llvm.lifetime.start.p0(i64 4, ptr %14) #16
  %29 = load i32, ptr %11, align 4, !tbaa !210
  store i32 %29, ptr %14, align 4, !tbaa !210
  call void @llvm.lifetime.start.p0(i64 4, ptr %15) #16
  store i32 1, ptr %15, align 4, !tbaa !210
  call void @llvm.lifetime.start.p0(i64 4, ptr %16) #16
  store i32 0, ptr %16, align 4, !tbaa !210
  call void @llvm.lifetime.start.p0(i64 4, ptr %17) #16
  %30 = load ptr, ptr %5, align 8
  %31 = load i32, ptr %30, align 4, !tbaa !210
  call void @__kmpc_for_static_init_4(ptr @1, i32 %31, i32 34, ptr %16, ptr %13, ptr %14, ptr %15, i32 1, i32 1)
  %32 = load i32, ptr %14, align 4, !tbaa !210
  %33 = load i32, ptr %11, align 4, !tbaa !210
  %34 = icmp sgt i32 %32, %33
  br i1 %34, label %35, label %37

35:                                               ; preds = %28
  %36 = load i32, ptr %11, align 4, !tbaa !210
  br label %39

37:                                               ; preds = %28
  %38 = load i32, ptr %14, align 4, !tbaa !210
  br label %39

39:                                               ; preds = %37, %35
  %40 = phi i32 [ %36, %35 ], [ %38, %37 ]
  store i32 %40, ptr %14, align 4, !tbaa !210
  %41 = load i32, ptr %13, align 4, !tbaa !210
  store i32 %41, ptr %9, align 4, !tbaa !210
  br label %42

42:                                               ; preds = %71, %39
  %43 = load i32, ptr %9, align 4, !tbaa !210
  %44 = load i32, ptr %14, align 4, !tbaa !210
  %45 = icmp sle i32 %43, %44
  br i1 %45, label %47, label %46

46:                                               ; preds = %42
  br label %74

47:                                               ; preds = %42
  %48 = load i32, ptr %9, align 4, !tbaa !210
  %49 = mul nsw i32 %48, 1
  %50 = add nsw i32 0, %49
  store i32 %50, ptr %17, align 4, !tbaa !210
  call void @llvm.lifetime.start.p0(i64 8, ptr %18) #16
  %51 = load ptr, ptr %20, align 8, !tbaa !4
  %52 = getelementptr inbounds nuw %struct.gmx_pme_pp, ptr %51, i32 0, i32 1
  %53 = load i32, ptr %17, align 4, !tbaa !210
  %54 = sext i32 %53 to i64
  %55 = call noundef nonnull align 4 dereferenceable(8) ptr @_ZNSt6vectorI7PpRanksSaIS0_EEixEm(ptr noundef nonnull align 8 dereferenceable(24) %52, i64 noundef %54) #16
  store ptr %55, ptr %18, align 8, !tbaa !129
  %56 = load ptr, ptr %20, align 8, !tbaa !4
  %57 = getelementptr inbounds nuw %struct.gmx_pme_pp, ptr %56, i32 0, i32 15
  %58 = call noundef ptr @_ZNKSt10unique_ptrIN3gmx17PmeForceSenderGpuESt14default_deleteIS1_EEptEv(ptr noundef nonnull align 8 dereferenceable(8) %57) #16
  %59 = load ptr, ptr %18, align 8, !tbaa !129
  %60 = getelementptr inbounds nuw %struct.PpRanks, ptr %59, i32 0, i32 0
  %61 = load i32, ptr %60, align 4, !tbaa !71
  %62 = load ptr, ptr %18, align 8, !tbaa !129
  %63 = getelementptr inbounds nuw %struct.PpRanks, ptr %62, i32 0, i32 1
  %64 = load i32, ptr %63, align 4, !tbaa !383
  %65 = load ptr, ptr %20, align 8, !tbaa !4
  %66 = getelementptr inbounds nuw %struct.gmx_pme_pp, ptr %65, i32 0, i32 17
  %67 = load i8, ptr %66, align 1, !tbaa !75, !range !265, !noundef !266
  %68 = trunc i8 %67 to i1
  invoke void @_ZN3gmx17PmeForceSenderGpu19sendFToPpPeerToPeerEiib(ptr noundef nonnull align 8 dereferenceable(8) %58, i32 noundef %61, i32 noundef %64, i1 noundef zeroext %68)
          to label %69 unwind label %79

69:                                               ; preds = %47
  call void @llvm.lifetime.end.p0(i64 8, ptr %18) #16
  br label %70

70:                                               ; preds = %69
  br label %71

71:                                               ; preds = %70
  %72 = load i32, ptr %9, align 4, !tbaa !210
  %73 = add nsw i32 %72, 1
  store i32 %73, ptr %9, align 4, !tbaa !210
  br label %42

74:                                               ; preds = %46
  br label %75

75:                                               ; preds = %74
  %76 = load ptr, ptr %5, align 8
  %77 = load i32, ptr %76, align 4, !tbaa !210
  call void @__kmpc_for_static_fini(ptr @1, i32 %77)
  call void @llvm.lifetime.end.p0(i64 4, ptr %17) #16
  call void @llvm.lifetime.end.p0(i64 4, ptr %16) #16
  call void @llvm.lifetime.end.p0(i64 4, ptr %15) #16
  call void @llvm.lifetime.end.p0(i64 4, ptr %14) #16
  call void @llvm.lifetime.end.p0(i64 4, ptr %13) #16
  br label %78

78:                                               ; preds = %75, %4
  call void @llvm.lifetime.end.p0(i64 4, ptr %11) #16
  call void @llvm.lifetime.end.p0(i64 4, ptr %10) #16
  call void @llvm.lifetime.end.p0(i64 4, ptr %9) #16
  ret void

79:                                               ; preds = %47
  %80 = landingpad { ptr, i32 }
          catch ptr null
  %81 = extractvalue { ptr, i32 } %80, 0
  call void @__clang_call_terminate(ptr %81) #17
  unreachable
}