; Function Attrs: alwaysinline norecurse nounwind uwtable
define internal void @_ZL27gmx_pme_send_force_vir_enerRK9gmx_pme_tP10gmx_pme_ppRK9PmeOutputfb.omp_outlined(ptr noalias noundef readonly captures(none) %0, ptr noalias readnone captures(none) %1, ptr noundef nonnull readonly align 4 captures(none) dereferenceable(4) %2, ptr noundef nonnull readonly align 8 captures(none) dereferenceable(8) %3) #14 personality ptr @__gxx_personality_v0 {
  %5 = alloca i32, align 4
  %6 = alloca i32, align 4
  %7 = alloca i32, align 4
  %8 = alloca i32, align 4
  %9 = load i32, ptr %2, align 4, !tbaa !81
  %10 = icmp sgt i32 %9, 0
  br i1 %10, label %11, label %33

11:                                               ; preds = %4
  %12 = add nsw i32 %9, -1
  call void @llvm.lifetime.start.p0(i64 4, ptr nonnull %5) #15
  store i32 0, ptr %5, align 4, !tbaa !81
  call void @llvm.lifetime.start.p0(i64 4, ptr nonnull %6) #15
  store i32 %12, ptr %6, align 4, !tbaa !81
  call void @llvm.lifetime.start.p0(i64 4, ptr nonnull %7) #15
  store i32 1, ptr %7, align 4, !tbaa !81
  call void @llvm.lifetime.start.p0(i64 4, ptr nonnull %8) #15
  store i32 0, ptr %8, align 4, !tbaa !81
  %13 = load i32, ptr %0, align 4, !tbaa !81
  call void @__kmpc_for_static_init_4(ptr nonnull @1, i32 %13, i32 34, ptr nonnull %8, ptr nonnull %5, ptr nonnull %6, ptr nonnull %7, i32 1, i32 1)
  %14 = load i32, ptr %6, align 4, !tbaa !81
  %15 = call i32 @llvm.smin.i32(i32 %14, i32 %12)
  store i32 %15, ptr %6, align 4, !tbaa !81
  %16 = load i32, ptr %5, align 4, !tbaa !81
  %.not14 = icmp sgt i32 %16, %15
  br i1 %.not14, label %._crit_edge, label %.lr.ph.preheader

.lr.ph.preheader:                                 ; preds = %11
  %17 = sext i32 %16 to i64
  br label %.lr.ph

.lr.ph:                                           ; preds = %.lr.ph.preheader, %30
  %indvars.iv = phi i64 [ %17, %.lr.ph.preheader ], [ %indvars.iv.next, %30 ]
  %18 = load ptr, ptr %3, align 8, !tbaa !132
  %19 = getelementptr inbounds nuw i8, ptr %18, i64 8
  %20 = load ptr, ptr %19, align 8, !tbaa !66
  %21 = getelementptr inbounds nuw %struct.PpRanks, ptr %20, i64 %indvars.iv
  %22 = getelementptr inbounds nuw i8, ptr %18, i64 328
  %23 = load ptr, ptr %22, align 8, !tbaa !144
  %24 = load i32, ptr %21, align 4, !tbaa !70
  %25 = getelementptr inbounds nuw i8, ptr %21, i64 4
  %26 = load i32, ptr %25, align 4, !tbaa !232
  %27 = getelementptr inbounds nuw i8, ptr %18, i64 337
  %28 = load i8, ptr %27, align 1, !tbaa !227, !range !279, !noundef !280
  %29 = trunc nuw i8 %28 to i1
  invoke void @_ZN3gmx17PmeForceSenderGpu19sendFToPpPeerToPeerEiib(ptr noundef nonnull align 8 dereferenceable(8) %23, i32 noundef %24, i32 noundef %26, i1 noundef zeroext %29)
          to label %30 unwind label %34

30:                                               ; preds = %.lr.ph
  %indvars.iv.next = add nsw i64 %indvars.iv, 1
  %31 = load i32, ptr %6, align 4, !tbaa !81
  %32 = sext i32 %31 to i64
  %.not.not = icmp slt i64 %indvars.iv, %32
  br i1 %.not.not, label %.lr.ph, label %._crit_edge

._crit_edge:                                      ; preds = %30, %11
  call void @__kmpc_for_static_fini(ptr nonnull @1, i32 %13)
  call void @llvm.lifetime.end.p0(i64 4, ptr nonnull %8) #15
  call void @llvm.lifetime.end.p0(i64 4, ptr nonnull %7) #15
  call void @llvm.lifetime.end.p0(i64 4, ptr nonnull %6) #15
  call void @llvm.lifetime.end.p0(i64 4, ptr nonnull %5) #15
  br label %33

33:                                               ; preds = %._crit_edge, %4
  ret void

34:                                               ; preds = %.lr.ph
  %35 = landingpad { ptr, i32 }
          catch ptr null
  %36 = extractvalue { ptr, i32 } %35, 0
  call void @__clang_call_terminate(ptr %36) #23
  unreachable
}